target datalayout = "e-m:e-p270:32:32-p271:32:32-p272:64:64-i64:64-i128:128-f80:128-n8:16:32:64-S128"
target triple = "x86_64-pc-linux-gnu"

%struct.H5L_info2_t = type { i32, i8, i64, i32, %union.anon.2 }
%union.anon.2 = type { i64, [8 x i8] }
%struct.trav_handle_udata_t = type { i64, ptr }

@.str.15 = private unnamed_addr constant [2 x i8] c"/\00", align 1
@.str.100 = private unnamed_addr constant [25 x i8] c"creating temporary link\0A\00", align 1
@.str.101 = private unnamed_addr constant [25 x i8] c"unknown link type value\0A\00", align 1

; Function Attrs: nounwind uwtable
define internal i32 @lnk_search(ptr noundef %0, ptr noundef %1, ptr noundef %2) #0 {
  %4 = alloca ptr, align 8
  %5 = alloca ptr, align 8
  %6 = alloca ptr, align 8
  %7 = alloca i64, align 8
  %8 = alloca i64, align 8
  %9 = alloca ptr, align 8
  %10 = alloca ptr, align 8
  %11 = alloca ptr, align 8
  store ptr %0, ptr %4, align 8, !tbaa !22
  store ptr %1, ptr %5, align 8, !tbaa !24
  store ptr %2, ptr %6, align 8, !tbaa !24
  call void @llvm.lifetime.start.p0(i64 8, ptr %7) #10
  call void @llvm.lifetime.start.p0(i64 8, ptr %8) #10
  call void @llvm.lifetime.start.p0(i64 8, ptr %9) #10
  call void @llvm.lifetime.start.p0(i64 8, ptr %10) #10
  %12 = load ptr, ptr %6, align 8, !tbaa !24
  store ptr %12, ptr %10, align 8, !tbaa !24
  call void @llvm.lifetime.start.p0(i64 8, ptr %11) #10
  %13 = load ptr, ptr %10, align 8, !tbaa !24
  %14 = getelementptr inbounds nuw %struct.trav_handle_udata_t, ptr %13, i32 0, i32 1
  %15 = load ptr, ptr %14, align 8, !tbaa !121
  store ptr %15, ptr %11, align 8, !tbaa !22
  %16 = load ptr, ptr %11, align 8, !tbaa !22
  %17 = call i64 @strlen(ptr noundef %16) #11
  store i64 %17, ptr %7, align 8, !tbaa !4
  %18 = load i64, ptr %7, align 8, !tbaa !4
  %19 = icmp ugt i64 %18, 0
  br i1 %19, label %20, label %27

20:                                               ; preds = %3
  %21 = load ptr, ptr %11, align 8, !tbaa !22
  %22 = getelementptr inbounds i8, ptr %21, i64 0
  %23 = load i8, ptr %22, align 1, !tbaa !77
  %24 = sext i8 %23 to i32
  %25 = icmp ne i32 %24, 47
  br i1 %25, label %26, label %27

26:                                               ; preds = %20
  store i64 2, ptr %8, align 8, !tbaa !4
  br label %28

27:                                               ; preds = %20, %3
  store i64 1, ptr %8, align 8, !tbaa !4
  br label %28

28:                                               ; preds = %27, %26
  %29 = load i64, ptr %7, align 8, !tbaa !4
  %30 = load i64, ptr %8, align 8, !tbaa !4
  %31 = add i64 %29, %30
  %32 = call noalias ptr @malloc(i64 noundef %31) #12
  store ptr %32, ptr %9, align 8, !tbaa !22
  %33 = load ptr, ptr %9, align 8, !tbaa !22
  %34 = icmp eq ptr %33, null
  br i1 %34, label %35, label %36

35:                                               ; preds = %28
  call void (ptr, ...) @error_msg(ptr noundef @.str.100)
  call void @h5tools_setstatus(i32 noundef 1)
  br label %74

36:                                               ; preds = %28
  %37 = load i64, ptr %8, align 8, !tbaa !4
  %38 = icmp eq i64 %37, 2
  br i1 %38, label %39, label %45

39:                                               ; preds = %36
  %40 = load ptr, ptr %9, align 8, !tbaa !22
  %41 = call ptr @strcpy(ptr noundef %40, ptr noundef @.str.15) #10
  %42 = load ptr, ptr %9, align 8, !tbaa !22
  %43 = load ptr, ptr %11, align 8, !tbaa !22
  %44 = call ptr @strcat(ptr noundef %42, ptr noundef %43) #10
  br label %49

45:                                               ; preds = %36
  %46 = load ptr, ptr %9, align 8, !tbaa !22
  %47 = load ptr, ptr %11, align 8, !tbaa !22
  %48 = call ptr @strcpy(ptr noundef %46, ptr noundef %47) #10
  br label %49

49:                                               ; preds = %45, %39
  %50 = load ptr, ptr %9, align 8, !tbaa !22
  %51 = load i64, ptr %7, align 8, !tbaa !4
  %52 = load i64, ptr %8, align 8, !tbaa !4
  %53 = add i64 %51, %52
  %54 = sub i64 %53, 1
  %55 = getelementptr inbounds nuw i8, ptr %50, i64 %54
  store i8 0, ptr %55, align 1, !tbaa !77
  %56 = load ptr, ptr %4, align 8, !tbaa !22
  %57 = load ptr, ptr %9, align 8, !tbaa !22
  %58 = call i32 @strcmp(ptr noundef %56, ptr noundef %57) #11
  %59 = icmp eq i32 %58, 0
  br i1 %59, label %60, label %72

60:                                               ; preds = %49
  %61 = load ptr, ptr %5, align 8, !tbaa !24
  %62 = getelementptr inbounds nuw %struct.H5L_info2_t, ptr %61, i32 0, i32 0
  %63 = load i32, ptr %62, align 8, !tbaa !48
  switch i32 %63, label %70 [
    i32 1, label %64
    i32 64, label %64
    i32 0, label %69
    i32 255, label %69
    i32 -1, label %69
  ]

64:                                               ; preds = %60, %60
  %65 = load ptr, ptr %10, align 8, !tbaa !24
  %66 = getelementptr inbounds nuw %struct.trav_handle_udata_t, ptr %65, i32 0, i32 0
  %67 = load i64, ptr %66, align 8, !tbaa !119
  %68 = load ptr, ptr %11, align 8, !tbaa !22
  call void @handle_links(i64 noundef %67, ptr noundef %68, ptr noundef null, i32 noundef 0, ptr noundef null)
  br label %71

69:                                               ; preds = %60, %60, %60
  br label %70

70:                                               ; preds = %60, %69
  call void (ptr, ...) @error_msg(ptr noundef @.str.101)
  call void @h5tools_setstatus(i32 noundef 1)
  br label %71

71:                                               ; preds = %70, %64
  br label %72

72:                                               ; preds = %71, %49
  %73 = load ptr, ptr %9, align 8, !tbaa !22
  call void @free(ptr noundef %73) #10
  br label %74

74:                                               ; preds = %72, %35
  call void @llvm.lifetime.end.p0(i64 8, ptr %11) #10
  call void @llvm.lifetime.end.p0(i64 8, ptr %10) #10
  call void @llvm.lifetime.end.p0(i64 8, ptr %9) #10
  call void @llvm.lifetime.end.p0(i64 8, ptr %8) #10
  call void @llvm.lifetime.end.p0(i64 8, ptr %7) #10
  ret i32 0
}