; Function Attrs: nounwind uwtable
define internal noundef i32 @lnk_search(ptr noundef readonly captures(none) %0, ptr noundef readonly captures(none) %1, ptr noundef readonly captures(none) %2) #0 {
  %4 = getelementptr inbounds nuw i8, ptr %2, i64 8
  %5 = load ptr, ptr %4, align 8, !tbaa !123
  %6 = tail call i64 @strlen(ptr noundef nonnull dereferenceable(1) %5) #17
  %.not = icmp eq i64 %6, 0
  br i1 %.not, label %.thread, label %7

7:                                                ; preds = %3
  %8 = load i8, ptr %5, align 1, !tbaa !72
  %.not23 = icmp eq i8 %8, 47
  br i1 %.not23, label %.thread, label %9

9:                                                ; preds = %7
  %10 = add i64 %6, 2
  %11 = tail call noalias ptr @malloc(i64 noundef %10) #16
  %12 = icmp eq ptr %11, null
  br i1 %12, label %16, label %17

.thread:                                          ; preds = %3, %7
  %13 = add i64 %6, 1
  %14 = tail call noalias ptr @malloc(i64 noundef %13) #16
  %15 = icmp eq ptr %14, null
  br i1 %15, label %16, label %19

16:                                               ; preds = %.thread, %9
  tail call void (ptr, ...) @error_msg(ptr noundef nonnull @.str.100) #15
  tail call void @h5tools_setstatus(i32 noundef 1) #15
  br label %34

17:                                               ; preds = %9
  store i16 47, ptr %11, align 1
  %18 = tail call ptr @strcat(ptr noundef nonnull dereferenceable(1) %11, ptr noundef nonnull dereferenceable(1) %5) #15
  br label %21

19:                                               ; preds = %.thread
  %20 = tail call ptr @strcpy(ptr noundef nonnull dereferenceable(1) %14, ptr noundef nonnull dereferenceable(1) %5) #15
  br label %21

21:                                               ; preds = %19, %17
  %22 = phi i64 [ %13, %19 ], [ %10, %17 ]
  %23 = phi ptr [ %14, %19 ], [ %11, %17 ]
  %24 = getelementptr i8, ptr %23, i64 %22
  %25 = getelementptr i8, ptr %24, i64 -1
  store i8 0, ptr %25, align 1, !tbaa !72
  %26 = tail call i32 @strcmp(ptr noundef nonnull dereferenceable(1) %0, ptr noundef nonnull dereferenceable(1) %23) #17
  %27 = icmp eq i32 %26, 0
  br i1 %27, label %28, label %33

28:                                               ; preds = %21
  %29 = load i32, ptr %1, align 8, !tbaa !45
  switch i32 %29, label %32 [
    i32 1, label %30
    i32 64, label %30
  ]

30:                                               ; preds = %28, %28
  %31 = load i64, ptr %2, align 8, !tbaa !121
  tail call void @handle_links(i64 noundef %31, ptr noundef nonnull %5, ptr poison, i32 poison, ptr poison)
  br label %33

32:                                               ; preds = %28
  tail call void (ptr, ...) @error_msg(ptr noundef nonnull @.str.101) #15
  tail call void @h5tools_setstatus(i32 noundef 1) #15
  br label %33

33:                                               ; preds = %30, %32, %21
  tail call void @free(ptr noundef nonnull %23) #15
  br label %34

34:                                               ; preds = %33, %16
  ret i32 0
}